target datalayout = "e-m:e-p270:32:32-p271:32:32-p272:64:64-i64:64-i128:128-f80:128-n8:16:32:64-S128"
target triple = "x86_64-pc-linux-gnu"

%struct.MAD_Data = type { i8, i8, i8, i8, i16, i64, i16, i32, [232 x i8] }

@hf_infiniband_reserved = internal global i32 0, align 4
@hf_infiniband_MAD = internal global i32 0, align 4
@hf_infiniband_base_version = internal global i32 0, align 4
@hf_infiniband_mgmt_class = internal global i32 0, align 4
@hf_infiniband_class_version = internal global i32 0, align 4
@hf_infiniband_method = internal global i32 0, align 4
@hf_infiniband_status = internal global i32 0, align 4
@hf_infiniband_class_specific = internal global i32 0, align 4
@hf_infiniband_transaction_id = internal global i32 0, align 4
@hf_infiniband_attribute_id = internal global i32 0, align 4
@hf_infiniband_attribute_modifier = internal global i32 0, align 4
@hf_infiniband_data = internal global i32 0, align 4
@ett_mad = internal global i32 0, align 4
@.str.1230 = private unnamed_addr constant [3 x i8] c"%s\00", align 1
@.str.1333 = private unnamed_addr constant [40 x i8] c"MAD Header - Common Management Datagram\00", align 1

; Function Attrs: null_pointer_is_valid sspstrong uwtable
define internal zeroext i1 @parse_MAD_Common(ptr noundef %0, ptr noundef %1, ptr noundef %2, ptr noundef %3) #0 {
  %5 = alloca i1, align 1
  %6 = alloca ptr, align 8
  %7 = alloca ptr, align 8
  %8 = alloca ptr, align 8
  %9 = alloca ptr, align 8
  %10 = alloca i32, align 4
  %11 = alloca ptr, align 8
  %12 = alloca ptr, align 8
  %13 = alloca i32, align 4
  store ptr %0, ptr %6, align 8
  store ptr %1, ptr %7, align 8
  store ptr %2, ptr %8, align 8
  store ptr %3, ptr %9, align 8
  call void @llvm.lifetime.start.p0(i64 4, ptr %10) #18
  %14 = load ptr, ptr %8, align 8
  %15 = load i32, ptr %14, align 4
  store i32 %15, ptr %10, align 4
  call void @llvm.lifetime.start.p0(i64 8, ptr %11) #18
  call void @llvm.lifetime.start.p0(i64 8, ptr %12) #18
  %16 = load ptr, ptr %9, align 8
  %17 = icmp eq ptr %16, null
  br i1 %17, label %18, label %19

18:                                               ; preds = %4
  store i1 false, ptr %5, align 1
  store i32 1, ptr %13, align 4
  br label %167

19:                                               ; preds = %4
  %20 = load ptr, ptr %7, align 8
  %21 = load ptr, ptr %8, align 8
  %22 = load i32, ptr %21, align 4
  %23 = call zeroext i1 @tvb_bytes_exist(ptr noundef %20, i32 noundef %22, i32 noundef 256)
  br i1 %23, label %25, label %24

24:                                               ; preds = %19
  store i1 false, ptr %5, align 1
  store i32 1, ptr %13, align 4
  br label %167

25:                                               ; preds = %19
  %26 = load ptr, ptr %7, align 8
  %27 = load i32, ptr %10, align 4
  %28 = add i32 %27, 1
  %29 = call zeroext i8 @tvb_get_uint8(ptr noundef %26, i32 noundef %28)
  %30 = load ptr, ptr %9, align 8
  %31 = getelementptr inbounds nuw %struct.MAD_Data, ptr %30, i32 0, i32 0
  store i8 %29, ptr %31, align 8
  %32 = load ptr, ptr %7, align 8
  %33 = load i32, ptr %10, align 4
  %34 = add i32 %33, 2
  %35 = call zeroext i8 @tvb_get_uint8(ptr noundef %32, i32 noundef %34)
  %36 = load ptr, ptr %9, align 8
  %37 = getelementptr inbounds nuw %struct.MAD_Data, ptr %36, i32 0, i32 1
  store i8 %35, ptr %37, align 1
  %38 = load ptr, ptr %7, align 8
  %39 = load i32, ptr %10, align 4
  %40 = add i32 %39, 3
  %41 = call zeroext i8 @tvb_get_uint8(ptr noundef %38, i32 noundef %40)
  %42 = load ptr, ptr %9, align 8
  %43 = getelementptr inbounds nuw %struct.MAD_Data, ptr %42, i32 0, i32 2
  store i8 %41, ptr %43, align 2
  %44 = load ptr, ptr %7, align 8
  %45 = load i32, ptr %10, align 4
  %46 = add i32 %45, 4
  %47 = call zeroext i8 @tvb_get_uint8(ptr noundef %44, i32 noundef %46)
  %48 = load ptr, ptr %9, align 8
  %49 = getelementptr inbounds nuw %struct.MAD_Data, ptr %48, i32 0, i32 3
  store i8 %47, ptr %49, align 1
  %50 = load ptr, ptr %7, align 8
  %51 = load i32, ptr %10, align 4
  %52 = add i32 %51, 6
  %53 = call zeroext i16 @tvb_get_ntohs(ptr noundef %50, i32 noundef %52)
  %54 = load ptr, ptr %9, align 8
  %55 = getelementptr inbounds nuw %struct.MAD_Data, ptr %54, i32 0, i32 4
  store i16 %53, ptr %55, align 4
  %56 = load ptr, ptr %7, align 8
  %57 = load i32, ptr %10, align 4
  %58 = add i32 %57, 8
  %59 = call i64 @tvb_get_ntoh64(ptr noundef %56, i32 noundef %58)
  %60 = load ptr, ptr %9, align 8
  %61 = getelementptr inbounds nuw %struct.MAD_Data, ptr %60, i32 0, i32 5
  store i64 %59, ptr %61, align 8
  %62 = load ptr, ptr %7, align 8
  %63 = load i32, ptr %10, align 4
  %64 = add i32 %63, 16
  %65 = call zeroext i16 @tvb_get_ntohs(ptr noundef %62, i32 noundef %64)
  %66 = load ptr, ptr %9, align 8
  %67 = getelementptr inbounds nuw %struct.MAD_Data, ptr %66, i32 0, i32 6
  store i16 %65, ptr %67, align 8
  %68 = load ptr, ptr %7, align 8
  %69 = load i32, ptr %10, align 4
  %70 = add i32 %69, 20
  %71 = call i32 @tvb_get_ntohl(ptr noundef %68, i32 noundef %70)
  %72 = load ptr, ptr %9, align 8
  %73 = getelementptr inbounds nuw %struct.MAD_Data, ptr %72, i32 0, i32 7
  store i32 %71, ptr %73, align 4
  %74 = load ptr, ptr %7, align 8
  %75 = load ptr, ptr %9, align 8
  %76 = getelementptr inbounds nuw %struct.MAD_Data, ptr %75, i32 0, i32 8
  %77 = getelementptr inbounds [232 x i8], ptr %76, i64 0, i64 0
  %78 = load i32, ptr %10, align 4
  %79 = add i32 %78, 24
  %80 = call ptr @tvb_memcpy(ptr noundef %74, ptr noundef %77, i32 noundef %79, i64 noundef 232)
  %81 = load ptr, ptr %6, align 8
  %82 = load i32, ptr @hf_infiniband_MAD, align 4
  %83 = load ptr, ptr %7, align 8
  %84 = load i32, ptr %10, align 4
  %85 = call ptr @proto_tree_add_item(ptr noundef %81, i32 noundef %82, ptr noundef %83, i32 noundef %84, i32 noundef 256, i32 noundef 0)
  store ptr %85, ptr %11, align 8
  %86 = load ptr, ptr %11, align 8
  call void (ptr, ptr, ...) @proto_item_set_text(ptr noundef %86, ptr noundef @.str.1230, ptr noundef @.str.1333)
  %87 = load ptr, ptr %11, align 8
  %88 = load i32, ptr @ett_mad, align 4
  %89 = call ptr @proto_item_add_subtree(ptr noundef %87, i32 noundef %88)
  store ptr %89, ptr %12, align 8
  %90 = load ptr, ptr %12, align 8
  %91 = load i32, ptr @hf_infiniband_base_version, align 4
  %92 = load ptr, ptr %7, align 8
  %93 = load i32, ptr %10, align 4
  %94 = call ptr @proto_tree_add_item(ptr noundef %90, i32 noundef %91, ptr noundef %92, i32 noundef %93, i32 noundef 1, i32 noundef 0)
  %95 = load i32, ptr %10, align 4
  %96 = add i32 %95, 1
  store i32 %96, ptr %10, align 4
  %97 = load ptr, ptr %12, align 8
  %98 = load i32, ptr @hf_infiniband_mgmt_class, align 4
  %99 = load ptr, ptr %7, align 8
  %100 = load i32, ptr %10, align 4
  %101 = call ptr @proto_tree_add_item(ptr noundef %97, i32 noundef %98, ptr noundef %99, i32 noundef %100, i32 noundef 1, i32 noundef 0)
  %102 = load i32, ptr %10, align 4
  %103 = add i32 %102, 1
  store i32 %103, ptr %10, align 4
  %104 = load ptr, ptr %12, align 8
  %105 = load i32, ptr @hf_infiniband_class_version, align 4
  %106 = load ptr, ptr %7, align 8
  %107 = load i32, ptr %10, align 4
  %108 = call ptr @proto_tree_add_item(ptr noundef %104, i32 noundef %105, ptr noundef %106, i32 noundef %107, i32 noundef 1, i32 noundef 0)
  %109 = load i32, ptr %10, align 4
  %110 = add i32 %109, 1
  store i32 %110, ptr %10, align 4
  %111 = load ptr, ptr %12, align 8
  %112 = load i32, ptr @hf_infiniband_method, align 4
  %113 = load ptr, ptr %7, align 8
  %114 = load i32, ptr %10, align 4
  %115 = call ptr @proto_tree_add_item(ptr noundef %111, i32 noundef %112, ptr noundef %113, i32 noundef %114, i32 noundef 1, i32 noundef 0)
  %116 = load i32, ptr %10, align 4
  %117 = add i32 %116, 1
  store i32 %117, ptr %10, align 4
  %118 = load ptr, ptr %12, align 8
  %119 = load i32, ptr @hf_infiniband_status, align 4
  %120 = load ptr, ptr %7, align 8
  %121 = load i32, ptr %10, align 4
  %122 = call ptr @proto_tree_add_item(ptr noundef %118, i32 noundef %119, ptr noundef %120, i32 noundef %121, i32 noundef 2, i32 noundef 0)
  %123 = load i32, ptr %10, align 4
  %124 = add i32 %123, 2
  store i32 %124, ptr %10, align 4
  %125 = load ptr, ptr %12, align 8
  %126 = load i32, ptr @hf_infiniband_class_specific, align 4
  %127 = load ptr, ptr %7, align 8
  %128 = load i32, ptr %10, align 4
  %129 = call ptr @proto_tree_add_item(ptr noundef %125, i32 noundef %126, ptr noundef %127, i32 noundef %128, i32 noundef 2, i32 noundef 0)
  %130 = load i32, ptr %10, align 4
  %131 = add i32 %130, 2
  store i32 %131, ptr %10, align 4
  %132 = load ptr, ptr %12, align 8
  %133 = load i32, ptr @hf_infiniband_transaction_id, align 4
  %134 = load ptr, ptr %7, align 8
  %135 = load i32, ptr %10, align 4
  %136 = call ptr @proto_tree_add_item(ptr noundef %132, i32 noundef %133, ptr noundef %134, i32 noundef %135, i32 noundef 8, i32 noundef 0)
  %137 = load i32, ptr %10, align 4
  %138 = add i32 %137, 8
  store i32 %138, ptr %10, align 4
  %139 = load ptr, ptr %12, align 8
  %140 = load i32, ptr @hf_infiniband_attribute_id, align 4
  %141 = load ptr, ptr %7, align 8
  %142 = load i32, ptr %10, align 4
  %143 = call ptr @proto_tree_add_item(ptr noundef %139, i32 noundef %140, ptr noundef %141, i32 noundef %142, i32 noundef 2, i32 noundef 0)
  %144 = load i32, ptr %10, align 4
  %145 = add i32 %144, 2
  store i32 %145, ptr %10, align 4
  %146 = load ptr, ptr %12, align 8
  %147 = load i32, ptr @hf_infiniband_reserved, align 4
  %148 = load ptr, ptr %7, align 8
  %149 = load i32, ptr %10, align 4
  %150 = call ptr @proto_tree_add_item(ptr noundef %146, i32 noundef %147, ptr noundef %148, i32 noundef %149, i32 noundef 2, i32 noundef 0)
  %151 = load i32, ptr %10, align 4
  %152 = add i32 %151, 2
  store i32 %152, ptr %10, align 4
  %153 = load ptr, ptr %12, align 8
  %154 = load i32, ptr @hf_infiniband_attribute_modifier, align 4
  %155 = load ptr, ptr %7, align 8
  %156 = load i32, ptr %10, align 4
  %157 = call ptr @proto_tree_add_item(ptr noundef %153, i32 noundef %154, ptr noundef %155, i32 noundef %156, i32 noundef 4, i32 noundef 0)
  %158 = load i32, ptr %10, align 4
  %159 = add i32 %158, 4
  store i32 %159, ptr %10, align 4
  %160 = load ptr, ptr %12, align 8
  %161 = load i32, ptr @hf_infiniband_data, align 4
  %162 = load ptr, ptr %7, align 8
  %163 = load i32, ptr %10, align 4
  %164 = call ptr @proto_tree_add_item(ptr noundef %160, i32 noundef %161, ptr noundef %162, i32 noundef %163, i32 noundef 232, i32 noundef 0)
  %165 = load i32, ptr %10, align 4
  %166 = load ptr, ptr %8, align 8
  store i32 %165, ptr %166, align 4
  store i1 true, ptr %5, align 1
  store i32 1, ptr %13, align 4
  br label %167

167:                                              ; preds = %25, %24, %18
  call void @llvm.lifetime.end.p0(i64 8, ptr %12) #18
  call void @llvm.lifetime.end.p0(i64 8, ptr %11) #18
  call void @llvm.lifetime.end.p0(i64 4, ptr %10) #18
  %168 = load i1, ptr %5, align 1
  ret i1 %168
}