; Function Attrs: null_pointer_is_valid sspstrong uwtable
define internal fastcc noundef zeroext i1 @parse_MAD_Common(ptr noundef %0, ptr noundef %1, ptr noundef captures(none) %2, ptr noundef %3) unnamed_addr #0 {
  %5 = load i32, ptr %2, align 4
  %6 = icmp eq ptr %3, null
  br i1 %6, label %63, label %7

7:                                                ; preds = %4
  %8 = tail call zeroext i1 @tvb_bytes_exist(ptr noundef %1, i32 noundef %5, i32 noundef 256)
  br i1 %8, label %9, label %63

9:                                                ; preds = %7
  %10 = add i32 %5, 1
  %11 = tail call zeroext i8 @tvb_get_uint8(ptr noundef %1, i32 noundef %10)
  store i8 %11, ptr %3, align 8
  %12 = add i32 %5, 2
  %13 = tail call zeroext i8 @tvb_get_uint8(ptr noundef %1, i32 noundef %12)
  %14 = getelementptr inbounds nuw i8, ptr %3, i64 1
  store i8 %13, ptr %14, align 1
  %15 = add i32 %5, 3
  %16 = tail call zeroext i8 @tvb_get_uint8(ptr noundef %1, i32 noundef %15)
  %17 = getelementptr inbounds nuw i8, ptr %3, i64 2
  store i8 %16, ptr %17, align 2
  %18 = add i32 %5, 4
  %19 = tail call zeroext i8 @tvb_get_uint8(ptr noundef %1, i32 noundef %18)
  %20 = getelementptr inbounds nuw i8, ptr %3, i64 3
  store i8 %19, ptr %20, align 1
  %21 = add i32 %5, 6
  %22 = tail call zeroext i16 @tvb_get_ntohs(ptr noundef %1, i32 noundef %21)
  %23 = getelementptr inbounds nuw i8, ptr %3, i64 4
  store i16 %22, ptr %23, align 4
  %24 = add i32 %5, 8
  %25 = tail call i64 @tvb_get_ntoh64(ptr noundef %1, i32 noundef %24)
  %26 = getelementptr inbounds nuw i8, ptr %3, i64 8
  store i64 %25, ptr %26, align 8
  %27 = add i32 %5, 16
  %28 = tail call zeroext i16 @tvb_get_ntohs(ptr noundef %1, i32 noundef %27)
  %29 = getelementptr inbounds nuw i8, ptr %3, i64 16
  store i16 %28, ptr %29, align 8
  %30 = add i32 %5, 20
  %31 = tail call i32 @tvb_get_ntohl(ptr noundef %1, i32 noundef %30)
  %32 = getelementptr inbounds nuw i8, ptr %3, i64 20
  store i32 %31, ptr %32, align 4
  %33 = getelementptr inbounds nuw i8, ptr %3, i64 24
  %34 = add i32 %5, 24
  %35 = tail call ptr @tvb_memcpy(ptr noundef %1, ptr noundef nonnull %33, i32 noundef %34, i64 noundef 232)
  %36 = load i32, ptr @hf_infiniband_MAD, align 4
  %37 = tail call ptr @proto_tree_add_item(ptr noundef %0, i32 noundef %36, ptr noundef %1, i32 noundef %5, i32 noundef 256, i32 noundef 0)
  tail call void (ptr, ptr, ...) @proto_item_set_text(ptr noundef %37, ptr noundef nonnull @.str.1230, ptr noundef nonnull @.str.1333)
  %38 = load i32, ptr @ett_mad, align 4
  %39 = tail call ptr @proto_item_add_subtree(ptr noundef %37, i32 noundef %38)
  %40 = load i32, ptr @hf_infiniband_base_version, align 4
  %41 = tail call ptr @proto_tree_add_item(ptr noundef %39, i32 noundef %40, ptr noundef %1, i32 noundef %5, i32 noundef 1, i32 noundef 0)
  %42 = load i32, ptr @hf_infiniband_mgmt_class, align 4
  %43 = tail call ptr @proto_tree_add_item(ptr noundef %39, i32 noundef %42, ptr noundef %1, i32 noundef %10, i32 noundef 1, i32 noundef 0)
  %44 = load i32, ptr @hf_infiniband_class_version, align 4
  %45 = tail call ptr @proto_tree_add_item(ptr noundef %39, i32 noundef %44, ptr noundef %1, i32 noundef %12, i32 noundef 1, i32 noundef 0)
  %46 = load i32, ptr @hf_infiniband_method, align 4
  %47 = tail call ptr @proto_tree_add_item(ptr noundef %39, i32 noundef %46, ptr noundef %1, i32 noundef %15, i32 noundef 1, i32 noundef 0)
  %48 = load i32, ptr @hf_infiniband_status, align 4
  %49 = tail call ptr @proto_tree_add_item(ptr noundef %39, i32 noundef %48, ptr noundef %1, i32 noundef %18, i32 noundef 2, i32 noundef 0)
  %50 = load i32, ptr @hf_infiniband_class_specific, align 4
  %51 = tail call ptr @proto_tree_add_item(ptr noundef %39, i32 noundef %50, ptr noundef %1, i32 noundef %21, i32 noundef 2, i32 noundef 0)
  %52 = load i32, ptr @hf_infiniband_transaction_id, align 4
  %53 = tail call ptr @proto_tree_add_item(ptr noundef %39, i32 noundef %52, ptr noundef %1, i32 noundef %24, i32 noundef 8, i32 noundef 0)
  %54 = load i32, ptr @hf_infiniband_attribute_id, align 4
  %55 = tail call ptr @proto_tree_add_item(ptr noundef %39, i32 noundef %54, ptr noundef %1, i32 noundef %27, i32 noundef 2, i32 noundef 0)
  %56 = add i32 %5, 18
  %57 = load i32, ptr @hf_infiniband_reserved, align 4
  %58 = tail call ptr @proto_tree_add_item(ptr noundef %39, i32 noundef %57, ptr noundef %1, i32 noundef %56, i32 noundef 2, i32 noundef 0)
  %59 = load i32, ptr @hf_infiniband_attribute_modifier, align 4
  %60 = tail call ptr @proto_tree_add_item(ptr noundef %39, i32 noundef %59, ptr noundef %1, i32 noundef %30, i32 noundef 4, i32 noundef 0)
  %61 = load i32, ptr @hf_infiniband_data, align 4
  %62 = tail call ptr @proto_tree_add_item(ptr noundef %39, i32 noundef %61, ptr noundef %1, i32 noundef %34, i32 noundef 232, i32 noundef 0)
  store i32 %34, ptr %2, align 4
  br label %63

63:                                               ; preds = %7, %4, %9
  %.0 = phi i1 [ true, %9 ], [ false, %4 ], [ false, %7 ]
  ret i1 %.0
}